target datalayout = "e-m:e-p270:32:32-p271:32:32-p272:64:64-i64:64-i128:128-f80:128-n8:16:32:64-S128"
target triple = "x86_64-pc-linux-gnu"

%struct.b2Vec2 = type { float, float }
%struct.b2Manifold = type { %struct.b2Vec2, float, [2 x %struct.b2ManifoldPoint], i32 }
%struct.b2ManifoldPoint = type { %struct.b2Vec2, %struct.b2Vec2, %struct.b2Vec2, float, float, float, float, float, i16, i8 }

; Function Attrs: inlinehint nounwind uwtable
define internal <2 x float> @b2MulAdd(<2 x float> %0, float noundef %1, <2 x float> %2) #3 {
  %4 = alloca %struct.b2Vec2, align 4
  %5 = alloca %struct.b2Vec2, align 4
  %6 = alloca %struct.b2Vec2, align 4
  %7 = alloca float, align 4
  store <2 x float> %0, ptr %5, align 4
  store <2 x float> %2, ptr %6, align 4
  store float %1, ptr %7, align 4, !tbaa !9
  %8 = getelementptr inbounds nuw %struct.b2Vec2, ptr %4, i32 0, i32 0
  %9 = getelementptr inbounds nuw %struct.b2Vec2, ptr %5, i32 0, i32 0
  %10 = load float, ptr %9, align 4, !tbaa !27
  %11 = load float, ptr %7, align 4, !tbaa !9
  %12 = getelementptr inbounds nuw %struct.b2Vec2, ptr %6, i32 0, i32 0
  %13 = load float, ptr %12, align 4, !tbaa !27
  %14 = fmul float %11, %13
  %15 = fadd float %10, %14
  store float %15, ptr %8, align 4, !tbaa !27
  %16 = getelementptr inbounds nuw %struct.b2Vec2, ptr %4, i32 0, i32 1
  %17 = getelementptr inbounds nuw %struct.b2Vec2, ptr %5, i32 0, i32 1
  %18 = load float, ptr %17, align 4, !tbaa !29
  %19 = load float, ptr %7, align 4, !tbaa !9
  %20 = getelementptr inbounds nuw %struct.b2Vec2, ptr %6, i32 0, i32 1
  %21 = load float, ptr %20, align 4, !tbaa !29
  %22 = fmul float %19, %21
  %23 = fadd float %18, %22
  store float %23, ptr %16, align 4, !tbaa !29
  %24 = load <2 x float>, ptr %4, align 4
  ret <2 x float> %24
}

; Function Attrs: inlinehint nounwind uwtable
define internal <2 x float> @b2Lerp(<2 x float> %0, <2 x float> %1, float noundef %2) #3 {
  %4 = alloca %struct.b2Vec2, align 4
  %5 = alloca %struct.b2Vec2, align 4
  %6 = alloca %struct.b2Vec2, align 4
  %7 = alloca float, align 4
  store <2 x float> %0, ptr %5, align 4
  store <2 x float> %1, ptr %6, align 4
  store float %2, ptr %7, align 4, !tbaa !9
  %8 = getelementptr inbounds nuw %struct.b2Vec2, ptr %4, i32 0, i32 0
  %9 = load float, ptr %7, align 4, !tbaa !9
  %10 = fsub float 1.000000e+00, %9
  %11 = getelementptr inbounds nuw %struct.b2Vec2, ptr %5, i32 0, i32 0
  %12 = load float, ptr %11, align 4, !tbaa !27
  %13 = fmul float %10, %12
  %14 = load float, ptr %7, align 4, !tbaa !9
  %15 = getelementptr inbounds nuw %struct.b2Vec2, ptr %6, i32 0, i32 0
  %16 = load float, ptr %15, align 4, !tbaa !27
  %17 = fmul float %14, %16
  %18 = fadd float %13, %17
  store float %18, ptr %8, align 4, !tbaa !27
  %19 = getelementptr inbounds nuw %struct.b2Vec2, ptr %4, i32 0, i32 1
  %20 = load float, ptr %7, align 4, !tbaa !9
  %21 = fsub float 1.000000e+00, %20
  %22 = getelementptr inbounds nuw %struct.b2Vec2, ptr %5, i32 0, i32 1
  %23 = load float, ptr %22, align 4, !tbaa !29
  %24 = fmul float %21, %23
  %25 = load float, ptr %7, align 4, !tbaa !9
  %26 = getelementptr inbounds nuw %struct.b2Vec2, ptr %6, i32 0, i32 1
  %27 = load float, ptr %26, align 4, !tbaa !29
  %28 = fmul float %25, %27
  %29 = fadd float %24, %28
  store float %29, ptr %19, align 4, !tbaa !29
  %30 = load <2 x float>, ptr %4, align 4
  ret <2 x float> %30
}

; Function Attrs: inlinehint nounwind uwtable
define internal float @b2Dot(<2 x float> %0, <2 x float> %1) #3 {
  %3 = alloca %struct.b2Vec2, align 4
  %4 = alloca %struct.b2Vec2, align 4
  store <2 x float> %0, ptr %3, align 4
  store <2 x float> %1, ptr %4, align 4
  %5 = getelementptr inbounds nuw %struct.b2Vec2, ptr %3, i32 0, i32 0
  %6 = load float, ptr %5, align 4, !tbaa !27
  %7 = getelementptr inbounds nuw %struct.b2Vec2, ptr %4, i32 0, i32 0
  %8 = load float, ptr %7, align 4, !tbaa !27
  %9 = fmul float %6, %8
  %10 = getelementptr inbounds nuw %struct.b2Vec2, ptr %3, i32 0, i32 1
  %11 = load float, ptr %10, align 4, !tbaa !29
  %12 = getelementptr inbounds nuw %struct.b2Vec2, ptr %4, i32 0, i32 1
  %13 = load float, ptr %12, align 4, !tbaa !29
  %14 = fmul float %11, %13
  %15 = fadd float %9, %14
  ret float %15
}

; Function Attrs: inlinehint nounwind uwtable
define internal <2 x float> @b2Sub(<2 x float> %0, <2 x float> %1) #3 {
  %3 = alloca %struct.b2Vec2, align 4
  %4 = alloca %struct.b2Vec2, align 4
  %5 = alloca %struct.b2Vec2, align 4
  store <2 x float> %0, ptr %4, align 4
  store <2 x float> %1, ptr %5, align 4
  %6 = getelementptr inbounds nuw %struct.b2Vec2, ptr %3, i32 0, i32 0
  %7 = getelementptr inbounds nuw %struct.b2Vec2, ptr %4, i32 0, i32 0
  %8 = load float, ptr %7, align 4, !tbaa !27
  %9 = getelementptr inbounds nuw %struct.b2Vec2, ptr %5, i32 0, i32 0
  %10 = load float, ptr %9, align 4, !tbaa !27
  %11 = fsub float %8, %10
  store float %11, ptr %6, align 4, !tbaa !27
  %12 = getelementptr inbounds nuw %struct.b2Vec2, ptr %3, i32 0, i32 1
  %13 = getelementptr inbounds nuw %struct.b2Vec2, ptr %4, i32 0, i32 1
  %14 = load float, ptr %13, align 4, !tbaa !29
  %15 = getelementptr inbounds nuw %struct.b2Vec2, ptr %5, i32 0, i32 1
  %16 = load float, ptr %15, align 4, !tbaa !29
  %17 = fsub float %14, %16
  store float %17, ptr %12, align 4, !tbaa !29
  %18 = load <2 x float>, ptr %3, align 4
  ret <2 x float> %18
}

; Function Attrs: inlinehint nounwind uwtable
define internal <2 x float> @b2LeftPerp(<2 x float> %0) #3 {
  %2 = alloca %struct.b2Vec2, align 4
  %3 = alloca %struct.b2Vec2, align 4
  store <2 x float> %0, ptr %3, align 4
  %4 = getelementptr inbounds nuw %struct.b2Vec2, ptr %2, i32 0, i32 0
  %5 = getelementptr inbounds nuw %struct.b2Vec2, ptr %3, i32 0, i32 1
  %6 = load float, ptr %5, align 4, !tbaa !29
  %7 = fneg float %6
  store float %7, ptr %4, align 4, !tbaa !27
  %8 = getelementptr inbounds nuw %struct.b2Vec2, ptr %2, i32 0, i32 1
  %9 = getelementptr inbounds nuw %struct.b2Vec2, ptr %3, i32 0, i32 0
  %10 = load float, ptr %9, align 4, !tbaa !27
  store float %10, ptr %8, align 4, !tbaa !29
  %11 = load <2 x float>, ptr %2, align 4
  ret <2 x float> %11
}

; Function Attrs: nounwind uwtable
define internal void @b2ClipSegments(ptr dead_on_unwind noalias writable sret(%struct.b2Manifold) align 4 %0, <2 x float> %1, <2 x float> %2, <2 x float> %3, <2 x float> %4, <2 x float> %5, float noundef %6, float noundef %7, i16 noundef zeroext %8, i16 noundef zeroext %9) #0 {
  %11 = alloca %struct.b2Vec2, align 4
  %12 = alloca %struct.b2Vec2, align 4
  %13 = alloca %struct.b2Vec2, align 4
  %14 = alloca %struct.b2Vec2, align 4
  %15 = alloca %struct.b2Vec2, align 4
  %16 = alloca float, align 4
  %17 = alloca float, align 4
  %18 = alloca i16, align 2
  %19 = alloca i16, align 2
  %20 = alloca %struct.b2Vec2, align 4
  %21 = alloca float, align 4
  %22 = alloca float, align 4
  %23 = alloca %struct.b2Vec2, align 4
  %24 = alloca float, align 4
  %25 = alloca %struct.b2Vec2, align 4
  %26 = alloca float, align 4
  %27 = alloca %struct.b2Vec2, align 4
  %28 = alloca i32, align 4
  %29 = alloca %struct.b2Vec2, align 4
  %30 = alloca %struct.b2Vec2, align 4
  %31 = alloca %struct.b2Vec2, align 4
  %32 = alloca %struct.b2Vec2, align 4
  %33 = alloca float, align 4
  %34 = alloca %struct.b2Vec2, align 4
  %35 = alloca float, align 4
  %36 = alloca %struct.b2Vec2, align 4
  %37 = alloca %struct.b2Vec2, align 4
  %38 = alloca %struct.b2Vec2, align 4
  %39 = alloca float, align 4
  %40 = alloca ptr, align 8
  %41 = alloca ptr, align 8
  store <2 x float> %1, ptr %11, align 4
  store <2 x float> %2, ptr %12, align 4
  store <2 x float> %3, ptr %13, align 4
  store <2 x float> %4, ptr %14, align 4
  store <2 x float> %5, ptr %15, align 4
  store float %6, ptr %16, align 4, !tbaa !9
  store float %7, ptr %17, align 4, !tbaa !9
  store i16 %8, ptr %18, align 2, !tbaa !92
  store i16 %9, ptr %19, align 2, !tbaa !92
  call void @llvm.memset.p0.i64(ptr align 4 %0, i8 0, i64 112, i1 false)
  call void @llvm.lifetime.start.p0(i64 8, ptr %20) #8
  %42 = load <2 x float>, ptr %15, align 4
  %43 = call <2 x float> @b2LeftPerp(<2 x float> %42)
  store <2 x float> %43, ptr %20, align 4
  call void @llvm.lifetime.start.p0(i64 4, ptr %21) #8
  store float 0.000000e+00, ptr %21, align 4, !tbaa !9
  call void @llvm.lifetime.start.p0(i64 4, ptr %22) #8
  %44 = load <2 x float>, ptr %12, align 4
  %45 = load <2 x float>, ptr %11, align 4
  %46 = call <2 x float> @b2Sub(<2 x float> %44, <2 x float> %45)
  store <2 x float> %46, ptr %23, align 4
  %47 = load <2 x float>, ptr %23, align 4
  %48 = load <2 x float>, ptr %20, align 4
  %49 = call float @b2Dot(<2 x float> %47, <2 x float> %48)
  store float %49, ptr %22, align 4, !tbaa !9
  call void @llvm.lifetime.start.p0(i64 4, ptr %24) #8
  %50 = load <2 x float>, ptr %13, align 4
  %51 = load <2 x float>, ptr %11, align 4
  %52 = call <2 x float> @b2Sub(<2 x float> %50, <2 x float> %51)
  store <2 x float> %52, ptr %25, align 4
  %53 = load <2 x float>, ptr %25, align 4
  %54 = load <2 x float>, ptr %20, align 4
  %55 = call float @b2Dot(<2 x float> %53, <2 x float> %54)
  store float %55, ptr %24, align 4, !tbaa !9
  call void @llvm.lifetime.start.p0(i64 4, ptr %26) #8
  %56 = load <2 x float>, ptr %14, align 4
  %57 = load <2 x float>, ptr %11, align 4
  %58 = call <2 x float> @b2Sub(<2 x float> %56, <2 x float> %57)
  store <2 x float> %58, ptr %27, align 4
  %59 = load <2 x float>, ptr %27, align 4
  %60 = load <2 x float>, ptr %20, align 4
  %61 = call float @b2Dot(<2 x float> %59, <2 x float> %60)
  store float %61, ptr %26, align 4, !tbaa !9
  %62 = load float, ptr %24, align 4, !tbaa !9
  %63 = load float, ptr %21, align 4, !tbaa !9
  %64 = fcmp olt float %62, %63
  br i1 %64, label %69, label %65

65:                                               ; preds = %10
  %66 = load float, ptr %22, align 4, !tbaa !9
  %67 = load float, ptr %26, align 4, !tbaa !9
  %68 = fcmp olt float %66, %67
  br i1 %68, label %69, label %70

69:                                               ; preds = %65, %10
  store i32 1, ptr %28, align 4
  br label %174

70:                                               ; preds = %65
  call void @llvm.lifetime.start.p0(i64 8, ptr %29) #8
  %71 = load float, ptr %26, align 4, !tbaa !9
  %72 = load float, ptr %21, align 4, !tbaa !9
  %73 = fcmp olt float %71, %72
  br i1 %73, label %74, label %90

74:                                               ; preds = %70
  %75 = load float, ptr %24, align 4, !tbaa !9
  %76 = load float, ptr %26, align 4, !tbaa !9
  %77 = fsub float %75, %76
  %78 = fcmp ogt float %77, 0x3E80000000000000
  br i1 %78, label %79, label %90

79:                                               ; preds = %74
  call void @llvm.lifetime.start.p0(i64 8, ptr %30) #8
  %80 = load float, ptr %21, align 4, !tbaa !9
  %81 = load float, ptr %26, align 4, !tbaa !9
  %82 = fsub float %80, %81
  %83 = load float, ptr %24, align 4, !tbaa !9
  %84 = load float, ptr %26, align 4, !tbaa !9
  %85 = fsub float %83, %84
  %86 = fdiv float %82, %85
  %87 = load <2 x float>, ptr %14, align 4
  %88 = load <2 x float>, ptr %13, align 4
  %89 = call <2 x float> @b2Lerp(<2 x float> %87, <2 x float> %88, float noundef %86)
  store <2 x float> %89, ptr %30, align 4
  call void @llvm.memcpy.p0.p0.i64(ptr align 4 %29, ptr align 4 %30, i64 8, i1 false), !tbaa.struct !8
  call void @llvm.lifetime.end.p0(i64 8, ptr %30) #8
  br label %91

90:                                               ; preds = %74, %70
  call void @llvm.memcpy.p0.p0.i64(ptr align 4 %29, ptr align 4 %14, i64 8, i1 false), !tbaa.struct !8
  br label %91

91:                                               ; preds = %90, %79
  call void @llvm.lifetime.start.p0(i64 8, ptr %31) #8
  %92 = load float, ptr %24, align 4, !tbaa !9
  %93 = load float, ptr %22, align 4, !tbaa !9
  %94 = fcmp ogt float %92, %93
  br i1 %94, label %95, label %111

95:                                               ; preds = %91
  %96 = load float, ptr %24, align 4, !tbaa !9
  %97 = load float, ptr %26, align 4, !tbaa !9
  %98 = fsub float %96, %97
  %99 = fcmp ogt float %98, 0x3E80000000000000
  br i1 %99, label %100, label %111

100:                                              ; preds = %95
  call void @llvm.lifetime.start.p0(i64 8, ptr %32) #8
  %101 = load float, ptr %22, align 4, !tbaa !9
  %102 = load float, ptr %26, align 4, !tbaa !9
  %103 = fsub float %101, %102
  %104 = load float, ptr %24, align 4, !tbaa !9
  %105 = load float, ptr %26, align 4, !tbaa !9
  %106 = fsub float %104, %105
  %107 = fdiv float %103, %106
  %108 = load <2 x float>, ptr %14, align 4
  %109 = load <2 x float>, ptr %13, align 4
  %110 = call <2 x float> @b2Lerp(<2 x float> %108, <2 x float> %109, float noundef %107)
  store <2 x float> %110, ptr %32, align 4
  call void @llvm.memcpy.p0.p0.i64(ptr align 4 %31, ptr align 4 %32, i64 8, i1 false), !tbaa.struct !8
  call void @llvm.lifetime.end.p0(i64 8, ptr %32) #8
  br label %112

111:                                              ; preds = %95, %91
  call void @llvm.memcpy.p0.p0.i64(ptr align 4 %31, ptr align 4 %13, i64 8, i1 false), !tbaa.struct !8
  br label %112

112:                                              ; preds = %111, %100
  call void @llvm.lifetime.start.p0(i64 4, ptr %33) #8
  %113 = load <2 x float>, ptr %29, align 4
  %114 = load <2 x float>, ptr %11, align 4
  %115 = call <2 x float> @b2Sub(<2 x float> %113, <2 x float> %114)
  store <2 x float> %115, ptr %34, align 4
  %116 = load <2 x float>, ptr %34, align 4
  %117 = load <2 x float>, ptr %15, align 4
  %118 = call float @b2Dot(<2 x float> %116, <2 x float> %117)
  store float %118, ptr %33, align 4, !tbaa !9
  call void @llvm.lifetime.start.p0(i64 4, ptr %35) #8
  %119 = load <2 x float>, ptr %31, align 4
  %120 = load <2 x float>, ptr %11, align 4
  %121 = call <2 x float> @b2Sub(<2 x float> %119, <2 x float> %120)
  store <2 x float> %121, ptr %36, align 4
  %122 = load <2 x float>, ptr %36, align 4
  %123 = load <2 x float>, ptr %15, align 4
  %124 = call float @b2Dot(<2 x float> %122, <2 x float> %123)
  store float %124, ptr %35, align 4, !tbaa !9
  call void @llvm.lifetime.start.p0(i64 8, ptr %37) #8
  %125 = load float, ptr %16, align 4, !tbaa !9
  %126 = load float, ptr %17, align 4, !tbaa !9
  %127 = fsub float %125, %126
  %128 = load float, ptr %33, align 4, !tbaa !9
  %129 = fsub float %127, %128
  %130 = fmul float 5.000000e-01, %129
  %131 = load <2 x float>, ptr %29, align 4
  %132 = load <2 x float>, ptr %15, align 4
  %133 = call <2 x float> @b2MulAdd(<2 x float> %131, float noundef %130, <2 x float> %132)
  store <2 x float> %133, ptr %37, align 4
  call void @llvm.memcpy.p0.p0.i64(ptr align 4 %29, ptr align 4 %37, i64 8, i1 false), !tbaa.struct !8
  call void @llvm.lifetime.end.p0(i64 8, ptr %37) #8
  call void @llvm.lifetime.start.p0(i64 8, ptr %38) #8
  %134 = load float, ptr %16, align 4, !tbaa !9
  %135 = load float, ptr %17, align 4, !tbaa !9
  %136 = fsub float %134, %135
  %137 = load float, ptr %35, align 4, !tbaa !9
  %138 = fsub float %136, %137
  %139 = fmul float 5.000000e-01, %138
  %140 = load <2 x float>, ptr %31, align 4
  %141 = load <2 x float>, ptr %15, align 4
  %142 = call <2 x float> @b2MulAdd(<2 x float> %140, float noundef %139, <2 x float> %141)
  store <2 x float> %142, ptr %38, align 4
  call void @llvm.memcpy.p0.p0.i64(ptr align 4 %31, ptr align 4 %38, i64 8, i1 false), !tbaa.struct !8
  call void @llvm.lifetime.end.p0(i64 8, ptr %38) #8
  call void @llvm.lifetime.start.p0(i64 4, ptr %39) #8
  %143 = load float, ptr %16, align 4, !tbaa !9
  %144 = load float, ptr %17, align 4, !tbaa !9
  %145 = fadd float %143, %144
  store float %145, ptr %39, align 4, !tbaa !9
  %146 = getelementptr inbounds nuw %struct.b2Manifold, ptr %0, i32 0, i32 0
  call void @llvm.memcpy.p0.p0.i64(ptr align 4 %146, ptr align 4 %15, i64 8, i1 false), !tbaa.struct !8
  call void @llvm.lifetime.start.p0(i64 8, ptr %40) #8
  %147 = getelementptr inbounds nuw %struct.b2Manifold, ptr %0, i32 0, i32 2
  %148 = getelementptr inbounds [2 x %struct.b2ManifoldPoint], ptr %147, i64 0, i64 0
  %149 = getelementptr inbounds %struct.b2ManifoldPoint, ptr %148, i64 0
  store ptr %149, ptr %40, align 8, !tbaa !14
  %150 = load ptr, ptr %40, align 8, !tbaa !14
  %151 = getelementptr inbounds nuw %struct.b2ManifoldPoint, ptr %150, i32 0, i32 1
  call void @llvm.memcpy.p0.p0.i64(ptr align 4 %151, ptr align 4 %29, i64 8, i1 false), !tbaa.struct !8
  %152 = load float, ptr %33, align 4, !tbaa !9
  %153 = load float, ptr %39, align 4, !tbaa !9
  %154 = fsub float %152, %153
  %155 = load ptr, ptr %40, align 8, !tbaa !14
  %156 = getelementptr inbounds nuw %struct.b2ManifoldPoint, ptr %155, i32 0, i32 3
  store float %154, ptr %156, align 4, !tbaa !16
  %157 = load i16, ptr %18, align 2, !tbaa !92
  %158 = load ptr, ptr %40, align 8, !tbaa !14
  %159 = getelementptr inbounds nuw %struct.b2ManifoldPoint, ptr %158, i32 0, i32 8
  store i16 %157, ptr %159, align 4, !tbaa !20
  call void @llvm.lifetime.end.p0(i64 8, ptr %40) #8
  call void @llvm.lifetime.start.p0(i64 8, ptr %41) #8
  %160 = getelementptr inbounds nuw %struct.b2Manifold, ptr %0, i32 0, i32 2
  %161 = getelementptr inbounds [2 x %struct.b2ManifoldPoint], ptr %160, i64 0, i64 0
  %162 = getelementptr inbounds %struct.b2ManifoldPoint, ptr %161, i64 1
  store ptr %162, ptr %41, align 8, !tbaa !14
  %163 = load ptr, ptr %41, align 8, !tbaa !14
  %164 = getelementptr inbounds nuw %struct.b2ManifoldPoint, ptr %163, i32 0, i32 1
  call void @llvm.memcpy.p0.p0.i64(ptr align 4 %164, ptr align 4 %31, i64 8, i1 false), !tbaa.struct !8
  %165 = load float, ptr %35, align 4, !tbaa !9
  %166 = load float, ptr %39, align 4, !tbaa !9
  %167 = fsub float %165, %166
  %168 = load ptr, ptr %41, align 8, !tbaa !14
  %169 = getelementptr inbounds nuw %struct.b2ManifoldPoint, ptr %168, i32 0, i32 3
  store float %167, ptr %169, align 4, !tbaa !16
  %170 = load i16, ptr %19, align 2, !tbaa !92
  %171 = load ptr, ptr %41, align 8, !tbaa !14
  %172 = getelementptr inbounds nuw %struct.b2ManifoldPoint, ptr %171, i32 0, i32 8
  store i16 %170, ptr %172, align 4, !tbaa !20
  call void @llvm.lifetime.end.p0(i64 8, ptr %41) #8
  %173 = getelementptr inbounds nuw %struct.b2Manifold, ptr %0, i32 0, i32 3
  store i32 2, ptr %173, align 4, !tbaa !21
  store i32 1, ptr %28, align 4
  call void @llvm.lifetime.end.p0(i64 4, ptr %39) #8
  call void @llvm.lifetime.end.p0(i64 4, ptr %35) #8
  call void @llvm.lifetime.end.p0(i64 4, ptr %33) #8
  call void @llvm.lifetime.end.p0(i64 8, ptr %31) #8
  call void @llvm.lifetime.end.p0(i64 8, ptr %29) #8
  br label %174

174:                                              ; preds = %112, %69
  call void @llvm.lifetime.end.p0(i64 4, ptr %26) #8
  call void @llvm.lifetime.end.p0(i64 4, ptr %24) #8
  call void @llvm.lifetime.end.p0(i64 4, ptr %22) #8
  call void @llvm.lifetime.end.p0(i64 4, ptr %21) #8
  call void @llvm.lifetime.end.p0(i64 8, ptr %20) #8
  ret void
}