; Function Attrs: mustprogress nofree norecurse nosync nounwind willreturn memory(argmem: write) uwtable
define internal fastcc void @b2ClipSegments(ptr dead_on_unwind noalias nonnull writable writeonly align 4 captures(none) initializes((0, 112)) %0, <2 x float> %1, <2 x float> %2, <2 x float> %3, <2 x float> %4, <2 x float> %5, float noundef %6, float noundef %7, i16 noundef zeroext range(i16 0, -254) %8, i16 noundef zeroext range(i16 0, -255) %9) unnamed_addr #8 {
  tail call void @llvm.memset.p0.i64(ptr noundef nonnull align 4 dereferenceable(112) %0, i8 0, i64 112, i1 false)
  %.sroa.0.4.vec.extract.i = extractelement <2 x float> %5, i64 1
  %.sroa.0.0.vec.extract.i = extractelement <2 x float> %1, i64 0
  %11 = fsub <2 x float> %2, %1
  %12 = extractelement <2 x float> %11, i64 0
  %.sroa.0.4.vec.extract.i79 = extractelement <2 x float> %1, i64 1
  %13 = fsub <2 x float> %2, %1
  %.sroa.0.4.vec.extract.i83 = extractelement <2 x float> %5, i64 0
  %shift = shufflevector <2 x float> %13, <2 x float> poison, <2 x i32> <i32 1, i32 poison>
  %14 = fmul <2 x float> %shift, %5
  %15 = extractelement <2 x float> %14, i64 0
  %16 = fmul float %12, %.sroa.0.4.vec.extract.i
  %17 = fsub float %15, %16
  %.sroa.01.0.vec.extract.i84 = extractelement <2 x float> %3, i64 0
  %18 = fsub <2 x float> %3, %1
  %19 = extractelement <2 x float> %18, i64 0
  %.sroa.01.4.vec.extract.i87 = extractelement <2 x float> %3, i64 1
  %20 = fsub float %.sroa.01.4.vec.extract.i87, %.sroa.0.4.vec.extract.i79
  %21 = fmul float %20, %.sroa.0.4.vec.extract.i83
  %22 = fmul float %19, %.sroa.0.4.vec.extract.i
  %23 = fsub float %21, %22
  %.sroa.01.0.vec.extract.i94 = extractelement <2 x float> %4, i64 0
  %24 = fsub <2 x float> %4, %1
  %25 = extractelement <2 x float> %24, i64 0
  %.sroa.01.4.vec.extract.i97 = extractelement <2 x float> %4, i64 1
  %26 = fsub float %.sroa.01.4.vec.extract.i97, %.sroa.0.4.vec.extract.i79
  %27 = fmul float %26, %.sroa.0.4.vec.extract.i83
  %28 = fmul float %.sroa.0.4.vec.extract.i, %25
  %29 = fsub float %27, %28
  %30 = fcmp olt float %23, 0.000000e+00
  %31 = fcmp olt float %17, %29
  %or.cond = select i1 %30, i1 true, i1 %31
  br i1 %or.cond, label %95, label %32

32:                                               ; preds = %10
  %33 = fcmp olt float %29, 0.000000e+00
  br i1 %33, label %34, label %47

34:                                               ; preds = %32
  %35 = fsub float %23, %29
  %36 = fcmp ogt float %35, 0x3E80000000000000
  br i1 %36, label %37, label %47

37:                                               ; preds = %34
  %38 = fsub float 0.000000e+00, %29
  %39 = fdiv float %38, %35
  %40 = fsub float 1.000000e+00, %39
  %41 = fmul float %.sroa.01.0.vec.extract.i94, %40
  %42 = fmul float %.sroa.01.0.vec.extract.i84, %39
  %43 = fadd float %42, %41
  %.sroa.05.0.vec.insert.i = insertelement <2 x float> poison, float %43, i64 0
  %44 = fmul float %.sroa.01.4.vec.extract.i97, %40
  %45 = fmul float %.sroa.01.4.vec.extract.i87, %39
  %46 = fadd float %45, %44
  %.sroa.05.4.vec.insert.i = insertelement <2 x float> %.sroa.05.0.vec.insert.i, float %46, i64 1
  br label %47

47:                                               ; preds = %32, %34, %37
  %.sroa.020.0 = phi <2 x float> [ %.sroa.05.4.vec.insert.i, %37 ], [ %4, %34 ], [ %4, %32 ]
  %48 = fcmp ogt float %23, %17
  br i1 %48, label %49, label %62

49:                                               ; preds = %47
  %50 = fsub float %23, %29
  %51 = fcmp ogt float %50, 0x3E80000000000000
  br i1 %51, label %52, label %62

52:                                               ; preds = %49
  %53 = fsub float %17, %29
  %54 = fdiv float %53, %50
  %55 = fsub float 1.000000e+00, %54
  %56 = fmul float %.sroa.01.0.vec.extract.i94, %55
  %57 = fmul float %.sroa.01.0.vec.extract.i84, %54
  %58 = fadd float %57, %56
  %59 = fmul float %.sroa.01.4.vec.extract.i97, %55
  %60 = fmul float %.sroa.01.4.vec.extract.i87, %54
  %61 = fadd float %60, %59
  %.pre140 = fsub float %58, %.sroa.0.0.vec.extract.i
  %.pre142 = fsub float %61, %.sroa.0.4.vec.extract.i79
  br label %62

62:                                               ; preds = %47, %49, %52
  %.pre-phi143 = phi float [ %20, %47 ], [ %20, %49 ], [ %.pre142, %52 ]
  %.sroa.01.4.vec.extract.i125.pre-phi = phi float [ %.sroa.01.4.vec.extract.i87, %47 ], [ %.sroa.01.4.vec.extract.i87, %49 ], [ %61, %52 ]
  %.pre-phi = phi float [ %19, %47 ], [ %19, %49 ], [ %.pre140, %52 ]
  %.sroa.01.0.vec.extract.i122.pre-phi = phi float [ %.sroa.01.0.vec.extract.i84, %47 ], [ %.sroa.01.0.vec.extract.i84, %49 ], [ %58, %52 ]
  %.sroa.01.0.vec.extract.i112 = extractelement <2 x float> %.sroa.020.0, i64 0
  %63 = fsub <2 x float> %.sroa.020.0, %1
  %.sroa.01.4.vec.extract.i115 = extractelement <2 x float> %.sroa.020.0, i64 1
  %64 = fsub float %.sroa.01.4.vec.extract.i115, %.sroa.0.4.vec.extract.i79
  %65 = fmul <2 x float> %5, %63
  %66 = extractelement <2 x float> %65, i64 0
  %67 = fmul float %.sroa.0.4.vec.extract.i, %64
  %68 = fadd float %66, %67
  %69 = fmul float %.sroa.0.4.vec.extract.i83, %.pre-phi
  %70 = fmul float %.sroa.0.4.vec.extract.i, %.pre-phi143
  %71 = fadd float %69, %70
  %72 = fsub float %6, %7
  %73 = fsub float %72, %68
  %74 = fmul float %73, 5.000000e-01
  %75 = fmul float %.sroa.0.4.vec.extract.i83, %74
  %76 = fadd float %.sroa.01.0.vec.extract.i112, %75
  %.sroa.03.0.vec.insert.i = insertelement <2 x float> poison, float %76, i64 0
  %77 = fmul float %.sroa.0.4.vec.extract.i, %74
  %78 = fadd float %.sroa.01.4.vec.extract.i115, %77
  %.sroa.03.4.vec.insert.i = insertelement <2 x float> %.sroa.03.0.vec.insert.i, float %78, i64 1
  %79 = fsub float %72, %71
  %80 = fmul float %79, 5.000000e-01
  %81 = fmul float %.sroa.0.4.vec.extract.i83, %80
  %82 = fadd float %.sroa.01.0.vec.extract.i122.pre-phi, %81
  %.sroa.03.0.vec.insert.i136 = insertelement <2 x float> poison, float %82, i64 0
  %83 = fmul float %.sroa.0.4.vec.extract.i, %80
  %84 = fadd float %.sroa.01.4.vec.extract.i125.pre-phi, %83
  %.sroa.03.4.vec.insert.i139 = insertelement <2 x float> %.sroa.03.0.vec.insert.i136, float %84, i64 1
  %85 = fadd float %6, %7
  store <2 x float> %5, ptr %0, align 4
  %86 = getelementptr inbounds nuw i8, ptr %0, i64 20
  store <2 x float> %.sroa.03.4.vec.insert.i, ptr %86, align 4
  %87 = fsub float %68, %85
  %88 = getelementptr inbounds nuw i8, ptr %0, i64 36
  store float %87, ptr %88, align 4, !tbaa !10
  %89 = getelementptr inbounds nuw i8, ptr %0, i64 56
  store i16 %8, ptr %89, align 4, !tbaa !24
  %90 = getelementptr inbounds nuw i8, ptr %0, i64 68
  store <2 x float> %.sroa.03.4.vec.insert.i139, ptr %90, align 4
  %91 = fsub float %71, %85
  %92 = getelementptr inbounds nuw i8, ptr %0, i64 84
  store float %91, ptr %92, align 4, !tbaa !10
  %93 = getelementptr inbounds nuw i8, ptr %0, i64 104
  store i16 %9, ptr %93, align 4, !tbaa !24
  %94 = getelementptr inbounds nuw i8, ptr %0, i64 108
  store i32 2, ptr %94, align 4, !tbaa !14
  br label %95

95:                                               ; preds = %10, %62
  ret void
}